target datalayout = "e-m:e-p270:32:32-p271:32:32-p272:64:64-i64:64-i128:128-f80:128-n8:16:32:64-S128"
target triple = "x86_64-pc-linux-gnu"

%class.symbol = type { ptr }
%class.params_ref = type { ptr }
%"class.datalog::bound_relation_plugin" = type { %"class.datalog::relation_plugin.base", %class.arith_util, %class.bool_rewriter }
%"class.datalog::relation_plugin.base" = type <{ %"class.datalog::tr_infrastructure<datalog::relation_traits>::plugin_object", i32 }>
%"class.datalog::tr_infrastructure<datalog::relation_traits>::plugin_object" = type { ptr, i32, %class.symbol, ptr }
%class.arith_util = type { ptr, ptr }
%class.bool_rewriter = type { ptr, i8, i8, i8, i8, i8, i8, i32, i8, i32, i32, i8, %class.ptr_vector, %class.ptr_vector, %class.svector, %class.svector }
%class.ptr_vector = type { %class.vector }
%class.vector = type { ptr }
%class.svector = type { %class.vector.0 }
%class.vector.0 = type { ptr }
%"class.datalog::relation_plugin" = type <{ %"class.datalog::tr_infrastructure<datalog::relation_traits>::plugin_object", i32, [4 x i8] }>

@.str.9 = private unnamed_addr constant [15 x i8] c"bound_relation\00", align 1

; Function Attrs: mustprogress nounwind uwtable
define linkonce_odr hidden void @_ZN6vectorIjLb0EjEC2Ev(ptr noundef nonnull align 8 dereferenceable(8) %0) unnamed_addr #7 comdat align 2 {
  %2 = alloca ptr, align 8
  store ptr %0, ptr %2, align 8, !tbaa !135
  %3 = load ptr, ptr %2, align 8
  %4 = getelementptr inbounds nuw %class.vector.0, ptr %3, i32 0, i32 0
  store ptr null, ptr %4, align 8, !tbaa !137
  ret void
}

; Function Attrs: mustprogress nounwind uwtable
define linkonce_odr hidden void @_ZN6vectorIP4exprLb0EjEC2Ev(ptr noundef nonnull align 8 dereferenceable(8) %0) unnamed_addr #7 comdat align 2 {
  %2 = alloca ptr, align 8
  store ptr %0, ptr %2, align 8, !tbaa !252
  %3 = load ptr, ptr %2, align 8
  %4 = getelementptr inbounds nuw %class.vector, ptr %3, i32 0, i32 0
  store ptr null, ptr %4, align 8, !tbaa !254
  ret void
}

; Function Attrs: mustprogress nounwind uwtable
define linkonce_odr hidden void @_ZN7svectorIjjEC2Ev(ptr noundef nonnull align 8 dereferenceable(8) %0) unnamed_addr #7 comdat align 2 {
  %2 = alloca ptr, align 8
  store ptr %0, ptr %2, align 8, !tbaa !121
  %3 = load ptr, ptr %2, align 8
  call void @_ZN6vectorIjLb0EjEC2Ev(ptr noundef nonnull align 8 dereferenceable(8) %3) #3
  ret void
}

; Function Attrs: mustprogress nounwind uwtable
define linkonce_odr hidden void @_ZN10ptr_vectorI4exprEC2Ev(ptr noundef nonnull align 8 dereferenceable(8) %0) unnamed_addr #7 comdat align 2 {
  %2 = alloca ptr, align 8
  store ptr %0, ptr %2, align 8, !tbaa !250
  %3 = load ptr, ptr %2, align 8
  call void @_ZN6vectorIP4exprLb0EjEC2Ev(ptr noundef nonnull align 8 dereferenceable(8) %3) #3
  ret void
}

; Function Attrs: mustprogress nounwind uwtable
define linkonce_odr hidden void @_ZN7datalog17tr_infrastructureINS_15relation_traitsEE13plugin_objectC2ERK6symbolRNS_16relation_managerE(ptr noundef nonnull align 8 dereferenceable(32) %0, ptr noundef nonnull align 8 dereferenceable(8) %1, ptr noundef nonnull align 8 dereferenceable(200) %2) unnamed_addr #7 comdat align 2 {
  %4 = alloca ptr, align 8
  %5 = alloca ptr, align 8
  %6 = alloca ptr, align 8
  store ptr %0, ptr %4, align 8, !tbaa !24
  store ptr %1, ptr %5, align 8, !tbaa !14
  store ptr %2, ptr %6, align 8, !tbaa !8
  %7 = load ptr, ptr %4, align 8
  store ptr getelementptr inbounds inrange(-16, 200) ({ [27 x ptr] }, ptr @_ZTVN7datalog17tr_infrastructureINS_15relation_traitsEE13plugin_objectE, i32 0, i32 0, i32 2), ptr %7, align 8, !tbaa !10
  %8 = getelementptr inbounds nuw %"class.datalog::tr_infrastructure<datalog::relation_traits>::plugin_object", ptr %7, i32 0, i32 1
  store i32 -1, ptr %8, align 8, !tbaa !247
  %9 = getelementptr inbounds nuw %"class.datalog::tr_infrastructure<datalog::relation_traits>::plugin_object", ptr %7, i32 0, i32 2
  %10 = load ptr, ptr %5, align 8, !tbaa !14
  call void @llvm.memcpy.p0.p0.i64(ptr align 8 %9, ptr align 8 %10, i64 8, i1 false), !tbaa.struct !249
  %11 = getelementptr inbounds nuw %"class.datalog::tr_infrastructure<datalog::relation_traits>::plugin_object", ptr %7, i32 0, i32 3
  %12 = load ptr, ptr %6, align 8, !tbaa !8
  store ptr %12, ptr %11, align 8, !tbaa !8
  ret void
}

; Function Attrs: mustprogress nounwind uwtable
define linkonce_odr hidden void @_ZN7datalog17tr_infrastructureINS_15relation_traitsEE13plugin_objectD2Ev(ptr noundef nonnull align 8 dereferenceable(32) %0) unnamed_addr #7 comdat align 2 {
  %2 = alloca ptr, align 8
  store ptr %0, ptr %2, align 8, !tbaa !24
  ret void
}

; Function Attrs: mustprogress uwtable
define linkonce_odr hidden void @_ZN13bool_rewriterC2ER11ast_managerRK10params_ref(ptr noundef nonnull align 8 dereferenceable(72) %0, ptr noundef nonnull align 8 dereferenceable(976) %1, ptr noundef nonnull align 8 dereferenceable(8) %2) unnamed_addr #4 comdat align 2 personality ptr @__gxx_personality_v0 {
  %4 = alloca ptr, align 8
  %5 = alloca ptr, align 8
  %6 = alloca ptr, align 8
  %7 = alloca ptr, align 8
  %8 = alloca i32, align 4
  store ptr %0, ptr %4, align 8, !tbaa !32
  store ptr %1, ptr %5, align 8, !tbaa !34
  store ptr %2, ptr %6, align 8, !tbaa !27
  %9 = load ptr, ptr %4, align 8
  %10 = getelementptr inbounds nuw %class.bool_rewriter, ptr %9, i32 0, i32 0
  %11 = load ptr, ptr %5, align 8, !tbaa !34
  store ptr %11, ptr %10, align 8, !tbaa !34
  %12 = getelementptr inbounds nuw %class.bool_rewriter, ptr %9, i32 0, i32 1
  store i8 0, ptr %12, align 8, !tbaa !36
  %13 = getelementptr inbounds nuw %class.bool_rewriter, ptr %9, i32 0, i32 2
  store i8 1, ptr %13, align 1, !tbaa !46
  %14 = getelementptr inbounds nuw %class.bool_rewriter, ptr %9, i32 0, i32 3
  store i8 0, ptr %14, align 2, !tbaa !47
  %15 = getelementptr inbounds nuw %class.bool_rewriter, ptr %9, i32 0, i32 4
  store i8 0, ptr %15, align 1, !tbaa !48
  %16 = getelementptr inbounds nuw %class.bool_rewriter, ptr %9, i32 0, i32 5
  store i8 0, ptr %16, align 4, !tbaa !49
  %17 = getelementptr inbounds nuw %class.bool_rewriter, ptr %9, i32 0, i32 6
  store i8 0, ptr %17, align 1, !tbaa !50
  %18 = getelementptr inbounds nuw %class.bool_rewriter, ptr %9, i32 0, i32 10
  store i32 0, ptr %18, align 4, !tbaa !51
  %19 = getelementptr inbounds nuw %class.bool_rewriter, ptr %9, i32 0, i32 12
  call void @_ZN10ptr_vectorI4exprEC2Ev(ptr noundef nonnull align 8 dereferenceable(8) %19) #3
  %20 = getelementptr inbounds nuw %class.bool_rewriter, ptr %9, i32 0, i32 13
  call void @_ZN10ptr_vectorI4exprEC2Ev(ptr noundef nonnull align 8 dereferenceable(8) %20) #3
  %21 = getelementptr inbounds nuw %class.bool_rewriter, ptr %9, i32 0, i32 14
  call void @_ZN7svectorIjjEC2Ev(ptr noundef nonnull align 8 dereferenceable(8) %21) #3
  %22 = getelementptr inbounds nuw %class.bool_rewriter, ptr %9, i32 0, i32 15
  call void @_ZN7svectorIjjEC2Ev(ptr noundef nonnull align 8 dereferenceable(8) %22) #3
  %23 = load ptr, ptr %6, align 8, !tbaa !27
  invoke void @_ZN13bool_rewriter11updt_paramsERK10params_ref(ptr noundef nonnull align 8 dereferenceable(72) %9, ptr noundef nonnull align 8 dereferenceable(8) %23)
          to label %24 unwind label %25

24:                                               ; preds = %3
  ret void

25:                                               ; preds = %3
  %26 = landingpad { ptr, i32 }
          cleanup
  %27 = extractvalue { ptr, i32 } %26, 0
  store ptr %27, ptr %7, align 8
  %28 = extractvalue { ptr, i32 } %26, 1
  store i32 %28, ptr %8, align 4
  call void @_ZN6vectorIjLb0EjED2Ev(ptr noundef nonnull align 8 dereferenceable(8) %22) #3
  call void @_ZN6vectorIjLb0EjED2Ev(ptr noundef nonnull align 8 dereferenceable(8) %21) #3
  call void @_ZN6vectorIP4exprLb0EjED2Ev(ptr noundef nonnull align 8 dereferenceable(8) %20) #3
  call void @_ZN6vectorIP4exprLb0EjED2Ev(ptr noundef nonnull align 8 dereferenceable(8) %19) #3
  br label %29

29:                                               ; preds = %25
  %30 = load ptr, ptr %7, align 8
  %31 = load i32, ptr %8, align 4
  %32 = insertvalue { ptr, i32 } poison, ptr %30, 0
  %33 = insertvalue { ptr, i32 } %32, i32 %31, 1
  resume { ptr, i32 } %33
}

; Function Attrs: mustprogress nounwind uwtable
define linkonce_odr hidden void @_ZN10params_refC2Ev(ptr noundef nonnull align 8 dereferenceable(8) %0) unnamed_addr #7 comdat align 2 {
  %2 = alloca ptr, align 8
  store ptr %0, ptr %2, align 8, !tbaa !27
  %3 = load ptr, ptr %2, align 8
  %4 = getelementptr inbounds nuw %class.params_ref, ptr %3, i32 0, i32 0
  store ptr null, ptr %4, align 8, !tbaa !29
  ret void
}

; Function Attrs: mustprogress uwtable
define linkonce_odr hidden noundef nonnull align 8 dereferenceable(976) ptr @_ZNK7datalog17tr_infrastructureINS_15relation_traitsEE13plugin_object15get_ast_managerEv(ptr noundef nonnull align 8 dereferenceable(32) %0) #4 comdat align 2 {
  %2 = alloca ptr, align 8
  store ptr %0, ptr %2, align 8, !tbaa !24
  %3 = load ptr, ptr %2, align 8
  %4 = getelementptr inbounds nuw %"class.datalog::tr_infrastructure<datalog::relation_traits>::plugin_object", ptr %3, i32 0, i32 3
  %5 = load ptr, ptr %4, align 8, !tbaa !26
  %6 = call noundef nonnull align 8 dereferenceable(976) ptr @_ZN7datalog32get_ast_manager_from_rel_managerERKNS_16relation_managerE(ptr noundef nonnull align 8 dereferenceable(200) %5)
  ret ptr %6
}

; Function Attrs: mustprogress uwtable
define linkonce_odr hidden void @_ZN7datalog15relation_pluginC2ERK6symbolRNS_16relation_managerENS0_21special_relation_typeE(ptr noundef nonnull align 8 dereferenceable(36) %0, ptr noundef nonnull align 8 dereferenceable(8) %1, ptr noundef nonnull align 8 dereferenceable(200) %2, i32 noundef %3) unnamed_addr #4 comdat align 2 {
  %5 = alloca ptr, align 8
  %6 = alloca ptr, align 8
  %7 = alloca ptr, align 8
  %8 = alloca i32, align 4
  store ptr %0, ptr %5, align 8, !tbaa !12
  store ptr %1, ptr %6, align 8, !tbaa !14
  store ptr %2, ptr %7, align 8, !tbaa !8
  store i32 %3, ptr %8, align 4, !tbaa !16
  %9 = load ptr, ptr %5, align 8
  %10 = load ptr, ptr %6, align 8, !tbaa !14
  %11 = load ptr, ptr %7, align 8, !tbaa !8
  call void @_ZN7datalog17tr_infrastructureINS_15relation_traitsEE13plugin_objectC2ERK6symbolRNS_16relation_managerE(ptr noundef nonnull align 8 dereferenceable(32) %9, ptr noundef nonnull align 8 dereferenceable(8) %10, ptr noundef nonnull align 8 dereferenceable(200) %11)
  store ptr getelementptr inbounds inrange(-16, 208) ({ [28 x ptr] }, ptr @_ZTVN7datalog15relation_pluginE, i32 0, i32 0, i32 2), ptr %9, align 8, !tbaa !10
  %12 = getelementptr inbounds nuw %"class.datalog::relation_plugin", ptr %9, i32 0, i32 1
  %13 = load i32, ptr %8, align 4, !tbaa !16
  store i32 %13, ptr %12, align 8, !tbaa !18
  ret void
}

; Function Attrs: mustprogress uwtable
define linkonce_odr hidden ptr @_ZN7datalog21bound_relation_plugin8get_nameEv() #4 comdat align 2 {
  %1 = alloca %class.symbol, align 8
  call void @_ZN6symbolC1EPKc(ptr noundef nonnull align 8 dereferenceable(8) %1, ptr noundef @.str.9)
  %2 = getelementptr inbounds nuw %class.symbol, ptr %1, i32 0, i32 0
  %3 = load ptr, ptr %2, align 8
  ret ptr %3
}

; Function Attrs: mustprogress uwtable
define hidden void @_ZN7datalog21bound_relation_pluginC2ERNS_16relation_managerE(ptr noundef nonnull align 8 dereferenceable(128) %0, ptr noundef nonnull align 8 dereferenceable(200) %1) unnamed_addr #4 align 2 personality ptr @__gxx_personality_v0 {
  %3 = alloca ptr, align 8
  %4 = alloca ptr, align 8
  %5 = alloca %class.symbol, align 8
  %6 = alloca ptr, align 8
  %7 = alloca i32, align 4
  %8 = alloca %class.params_ref, align 8
  store ptr %0, ptr %3, align 8, !tbaa !3
  store ptr %1, ptr %4, align 8, !tbaa !8
  %9 = load ptr, ptr %3, align 8
  call void @llvm.lifetime.start.p0(i64 8, ptr %5) #3
  %10 = call ptr @_ZN7datalog21bound_relation_plugin8get_nameEv()
  %11 = getelementptr inbounds nuw %class.symbol, ptr %5, i32 0, i32 0
  store ptr %10, ptr %11, align 8
  %12 = load ptr, ptr %4, align 8, !tbaa !8
  call void @_ZN7datalog15relation_pluginC2ERK6symbolRNS_16relation_managerENS0_21special_relation_typeE(ptr noundef nonnull align 8 dereferenceable(36) %9, ptr noundef nonnull align 8 dereferenceable(8) %5, ptr noundef nonnull align 8 dereferenceable(200) %12, i32 noundef 0)
  call void @llvm.lifetime.end.p0(i64 8, ptr %5) #3
  store ptr getelementptr inbounds inrange(-16, 208) ({ [28 x ptr] }, ptr @_ZTVN7datalog21bound_relation_pluginE, i32 0, i32 0, i32 2), ptr %9, align 8, !tbaa !10
  %13 = getelementptr inbounds nuw %"class.datalog::bound_relation_plugin", ptr %9, i32 0, i32 1
  %14 = invoke noundef nonnull align 8 dereferenceable(976) ptr @_ZNK7datalog17tr_infrastructureINS_15relation_traitsEE13plugin_object15get_ast_managerEv(ptr noundef nonnull align 8 dereferenceable(32) %9)
          to label %15 unwind label %21

15:                                               ; preds = %2
  invoke void @_ZN10arith_utilC1ER11ast_manager(ptr noundef nonnull align 8 dereferenceable(16) %13, ptr noundef nonnull align 8 dereferenceable(976) %14)
          to label %16 unwind label %21

16:                                               ; preds = %15
  %17 = getelementptr inbounds nuw %"class.datalog::bound_relation_plugin", ptr %9, i32 0, i32 2
  %18 = invoke noundef nonnull align 8 dereferenceable(976) ptr @_ZNK7datalog17tr_infrastructureINS_15relation_traitsEE13plugin_object15get_ast_managerEv(ptr noundef nonnull align 8 dereferenceable(32) %9)
          to label %19 unwind label %21

19:                                               ; preds = %16
  call void @llvm.lifetime.start.p0(i64 8, ptr %8) #3
  call void @llvm.memset.p0.i64(ptr align 8 %8, i8 0, i64 8, i1 false)
  call void @_ZN10params_refC2Ev(ptr noundef nonnull align 8 dereferenceable(8) %8) #3
  invoke void @_ZN13bool_rewriterC2ER11ast_managerRK10params_ref(ptr noundef nonnull align 8 dereferenceable(72) %17, ptr noundef nonnull align 8 dereferenceable(976) %18, ptr noundef nonnull align 8 dereferenceable(8) %8)
          to label %20 unwind label %25

20:                                               ; preds = %19
  call void @_ZN10params_refD1Ev(ptr noundef nonnull align 8 dereferenceable(8) %8) #3
  call void @llvm.lifetime.end.p0(i64 8, ptr %8) #3
  ret void

21:                                               ; preds = %16, %15, %2
  %22 = landingpad { ptr, i32 }
          cleanup
  %23 = extractvalue { ptr, i32 } %22, 0
  store ptr %23, ptr %6, align 8
  %24 = extractvalue { ptr, i32 } %22, 1
  store i32 %24, ptr %7, align 4
  br label %29

25:                                               ; preds = %19
  %26 = landingpad { ptr, i32 }
          cleanup
  %27 = extractvalue { ptr, i32 } %26, 0
  store ptr %27, ptr %6, align 8
  %28 = extractvalue { ptr, i32 } %26, 1
  store i32 %28, ptr %7, align 4
  call void @_ZN10params_refD1Ev(ptr noundef nonnull align 8 dereferenceable(8) %8) #3
  call void @llvm.lifetime.end.p0(i64 8, ptr %8) #3
  br label %29

29:                                               ; preds = %25, %21
  call void @_ZN7datalog17tr_infrastructureINS_15relation_traitsEE13plugin_objectD2Ev(ptr noundef nonnull align 8 dereferenceable(36) %9) #3
  br label %30

30:                                               ; preds = %29
  %31 = load ptr, ptr %6, align 8
  %32 = load i32, ptr %7, align 4
  %33 = insertvalue { ptr, i32 } poison, ptr %31, 0
  %34 = insertvalue { ptr, i32 } %33, i32 %32, 1
  resume { ptr, i32 } %34
}