; Function Attrs: mustprogress uwtable
define hidden void @_ZN7datalog21bound_relation_pluginC2ERNS_16relation_managerE(ptr noundef nonnull align 8 dereferenceable(128) initializes((0, 12), (16, 36)) %0, ptr noundef nonnull align 8 dereferenceable(200) %1) unnamed_addr #3 align 2 personality ptr @__gxx_personality_v0 {
_ZNK7datalog17tr_infrastructureINS_15relation_traitsEE13plugin_object15get_ast_managerEv.exit:
  %2 = alloca %class.symbol, align 8
  %3 = alloca %class.params_ref, align 8
  call void @llvm.lifetime.start.p0(i64 8, ptr nonnull %2)
  call void @_ZN6symbolC1EPKc(ptr noundef nonnull align 8 dereferenceable(8) %2, ptr noundef nonnull @.str.9)
  %4 = load ptr, ptr %2, align 8
  call void @llvm.lifetime.end.p0(i64 8, ptr nonnull %2)
  %5 = getelementptr inbounds nuw i8, ptr %0, i64 8
  store i32 -1, ptr %5, align 8, !tbaa !3
  %6 = getelementptr inbounds nuw i8, ptr %0, i64 16
  %7 = ptrtoint ptr %4 to i64
  store i64 %7, ptr %6, align 8, !tbaa !12
  %8 = getelementptr inbounds nuw i8, ptr %0, i64 24
  store ptr %1, ptr %8, align 8, !tbaa !13
  %9 = getelementptr inbounds nuw i8, ptr %0, i64 32
  store i32 0, ptr %9, align 8, !tbaa !14
  store ptr getelementptr inbounds nuw inrange(-16, 208) (i8, ptr @_ZTVN7datalog21bound_relation_pluginE, i64 16), ptr %0, align 8, !tbaa !17
  %10 = call noundef nonnull align 8 dereferenceable(976) ptr @_ZN7datalog32get_ast_manager_from_rel_managerERKNS_16relation_managerE(ptr noundef nonnull align 8 dereferenceable(200) %1)
  %11 = getelementptr inbounds nuw i8, ptr %0, i64 40
  call void @_ZN10arith_utilC1ER11ast_manager(ptr noundef nonnull align 8 dereferenceable(16) %11, ptr noundef nonnull align 8 dereferenceable(976) %10)
  %12 = load ptr, ptr %8, align 8, !tbaa !19
  %13 = call noundef nonnull align 8 dereferenceable(976) ptr @_ZN7datalog32get_ast_manager_from_rel_managerERKNS_16relation_managerE(ptr noundef nonnull align 8 dereferenceable(200) %12)
  %14 = getelementptr inbounds nuw i8, ptr %0, i64 56
  call void @llvm.lifetime.start.p0(i64 8, ptr nonnull %3) #24
  store ptr null, ptr %3, align 8, !tbaa !20
  store ptr %13, ptr %14, align 8, !tbaa !23
  %15 = getelementptr inbounds nuw i8, ptr %0, i64 64
  store i8 0, ptr %15, align 8, !tbaa !25
  %16 = getelementptr inbounds nuw i8, ptr %0, i64 65
  store i8 1, ptr %16, align 1, !tbaa !35
  %17 = getelementptr inbounds nuw i8, ptr %0, i64 66
  %18 = getelementptr inbounds nuw i8, ptr %0, i64 84
  store i32 0, ptr %18, align 4, !tbaa !36
  %19 = getelementptr inbounds nuw i8, ptr %0, i64 96
  store i32 0, ptr %17, align 2
  call void @llvm.memset.p0.i64(ptr noundef nonnull align 8 dereferenceable(32) %19, i8 0, i64 32, i1 false)
  invoke void @_ZN13bool_rewriter11updt_paramsERK10params_ref(ptr noundef nonnull align 8 dereferenceable(72) %14, ptr noundef nonnull align 8 dereferenceable(8) %3)
          to label %_ZN13bool_rewriterC2ER11ast_managerRK10params_ref.exit unwind label %.body

.body:                                            ; preds = %_ZNK7datalog17tr_infrastructureINS_15relation_traitsEE13plugin_object15get_ast_managerEv.exit
  %20 = landingpad { ptr, i32 }
          cleanup
  %21 = getelementptr inbounds nuw i8, ptr %0, i64 120
  %22 = getelementptr inbounds nuw i8, ptr %0, i64 112
  %23 = getelementptr inbounds nuw i8, ptr %0, i64 104
  call void @_ZN6vectorIjLb0EjED2Ev(ptr noundef nonnull align 8 dereferenceable(8) %21) #24
  call void @_ZN6vectorIjLb0EjED2Ev(ptr noundef nonnull align 8 dereferenceable(8) %22) #24
  call void @_ZN6vectorIP4exprLb0EjED2Ev(ptr noundef nonnull align 8 dereferenceable(8) %23) #24
  call void @_ZN6vectorIP4exprLb0EjED2Ev(ptr noundef nonnull align 8 dereferenceable(8) %19) #24
  call void @_ZN10params_refD1Ev(ptr noundef nonnull align 8 dereferenceable(8) %3) #24
  call void @llvm.lifetime.end.p0(i64 8, ptr nonnull %3) #24
  resume { ptr, i32 } %20

_ZN13bool_rewriterC2ER11ast_managerRK10params_ref.exit: ; preds = %_ZNK7datalog17tr_infrastructureINS_15relation_traitsEE13plugin_object15get_ast_managerEv.exit
  call void @_ZN10params_refD1Ev(ptr noundef nonnull align 8 dereferenceable(8) %3) #24
  call void @llvm.lifetime.end.p0(i64 8, ptr nonnull %3) #24
  ret void
}